target datalayout = "e-m:e-p270:32:32-p271:32:32-p272:64:64-i64:64-i128:128-f80:128-n8:16:32:64-S128"
target triple = "x86_64-pc-linux-gnu"

%struct.tsi_handshaker = type { ptr, i8, i8, i8 }
%struct.tsi_handshaker_vtable = type { ptr, ptr, ptr, ptr, ptr, ptr, ptr, ptr }

; Function Attrs: mustprogress uwtable
define noundef i32 @_Z25tsi_handshaker_get_resultP14tsi_handshaker(ptr noundef %0) #5 {
  %2 = alloca i32, align 4
  %3 = alloca ptr, align 8
  store ptr %0, ptr %3, align 8, !tbaa !24
  %4 = load ptr, ptr %3, align 8, !tbaa !24
  %5 = icmp eq ptr %4, null
  br i1 %5, label %11, label %6

6:                                                ; preds = %1
  %7 = load ptr, ptr %3, align 8, !tbaa !24
  %8 = getelementptr inbounds nuw %struct.tsi_handshaker, ptr %7, i32 0, i32 0
  %9 = load ptr, ptr %8, align 8, !tbaa !26
  %10 = icmp eq ptr %9, null
  br i1 %10, label %11, label %12

11:                                               ; preds = %6, %1
  store i32 2, ptr %2, align 4
  br label %40

12:                                               ; preds = %6
  %13 = load ptr, ptr %3, align 8, !tbaa !24
  %14 = getelementptr inbounds nuw %struct.tsi_handshaker, ptr %13, i32 0, i32 1
  %15 = load i8, ptr %14, align 8, !tbaa !30, !range !31, !noundef !32
  %16 = trunc i8 %15 to i1
  br i1 %16, label %17, label %18

17:                                               ; preds = %12
  store i32 5, ptr %2, align 4
  br label %40

18:                                               ; preds = %12
  %19 = load ptr, ptr %3, align 8, !tbaa !24
  %20 = getelementptr inbounds nuw %struct.tsi_handshaker, ptr %19, i32 0, i32 3
  %21 = load i8, ptr %20, align 2, !tbaa !33, !range !31, !noundef !32
  %22 = trunc i8 %21 to i1
  br i1 %22, label %23, label %24

23:                                               ; preds = %18
  store i32 14, ptr %2, align 4
  br label %40

24:                                               ; preds = %18
  %25 = load ptr, ptr %3, align 8, !tbaa !24
  %26 = getelementptr inbounds nuw %struct.tsi_handshaker, ptr %25, i32 0, i32 0
  %27 = load ptr, ptr %26, align 8, !tbaa !26
  %28 = getelementptr inbounds nuw %struct.tsi_handshaker_vtable, ptr %27, i32 0, i32 2
  %29 = load ptr, ptr %28, align 8, !tbaa !37
  %30 = icmp eq ptr %29, null
  br i1 %30, label %31, label %32

31:                                               ; preds = %24
  store i32 6, ptr %2, align 4
  br label %40

32:                                               ; preds = %24
  %33 = load ptr, ptr %3, align 8, !tbaa !24
  %34 = getelementptr inbounds nuw %struct.tsi_handshaker, ptr %33, i32 0, i32 0
  %35 = load ptr, ptr %34, align 8, !tbaa !26
  %36 = getelementptr inbounds nuw %struct.tsi_handshaker_vtable, ptr %35, i32 0, i32 2
  %37 = load ptr, ptr %36, align 8, !tbaa !37
  %38 = load ptr, ptr %3, align 8, !tbaa !24
  %39 = call noundef i32 %37(ptr noundef %38)
  store i32 %39, ptr %2, align 4
  br label %40

40:                                               ; preds = %32, %31, %23, %17, %11
  %41 = load i32, ptr %2, align 4
  ret i32 %41
}

; Function Attrs: mustprogress uwtable
define noundef i32 @_Z27tsi_handshaker_extract_peerP14tsi_handshakerP8tsi_peer(ptr noundef %0, ptr noundef %1) #5 {
  %3 = alloca i32, align 4
  %4 = alloca ptr, align 8
  %5 = alloca ptr, align 8
  store ptr %0, ptr %4, align 8, !tbaa !24
  store ptr %1, ptr %5, align 8, !tbaa !38
  %6 = load ptr, ptr %4, align 8, !tbaa !24
  %7 = icmp eq ptr %6, null
  br i1 %7, label %16, label %8

8:                                                ; preds = %2
  %9 = load ptr, ptr %4, align 8, !tbaa !24
  %10 = getelementptr inbounds nuw %struct.tsi_handshaker, ptr %9, i32 0, i32 0
  %11 = load ptr, ptr %10, align 8, !tbaa !26
  %12 = icmp eq ptr %11, null
  br i1 %12, label %16, label %13

13:                                               ; preds = %8
  %14 = load ptr, ptr %5, align 8, !tbaa !38
  %15 = icmp eq ptr %14, null
  br i1 %15, label %16, label %17

16:                                               ; preds = %13, %8, %2
  store i32 2, ptr %3, align 4
  br label %52

17:                                               ; preds = %13
  %18 = load ptr, ptr %5, align 8, !tbaa !38
  call void @llvm.memset.p0.i64(ptr align 8 %18, i8 0, i64 16, i1 false)
  %19 = load ptr, ptr %4, align 8, !tbaa !24
  %20 = getelementptr inbounds nuw %struct.tsi_handshaker, ptr %19, i32 0, i32 1
  %21 = load i8, ptr %20, align 8, !tbaa !30, !range !31, !noundef !32
  %22 = trunc i8 %21 to i1
  br i1 %22, label %23, label %24

23:                                               ; preds = %17
  store i32 5, ptr %3, align 4
  br label %52

24:                                               ; preds = %17
  %25 = load ptr, ptr %4, align 8, !tbaa !24
  %26 = getelementptr inbounds nuw %struct.tsi_handshaker, ptr %25, i32 0, i32 3
  %27 = load i8, ptr %26, align 2, !tbaa !33, !range !31, !noundef !32
  %28 = trunc i8 %27 to i1
  br i1 %28, label %29, label %30

29:                                               ; preds = %24
  store i32 14, ptr %3, align 4
  br label %52

30:                                               ; preds = %24
  %31 = load ptr, ptr %4, align 8, !tbaa !24
  %32 = call noundef i32 @_Z25tsi_handshaker_get_resultP14tsi_handshaker(ptr noundef %31)
  %33 = icmp ne i32 %32, 0
  br i1 %33, label %34, label %35

34:                                               ; preds = %30
  store i32 5, ptr %3, align 4
  br label %52

35:                                               ; preds = %30
  %36 = load ptr, ptr %4, align 8, !tbaa !24
  %37 = getelementptr inbounds nuw %struct.tsi_handshaker, ptr %36, i32 0, i32 0
  %38 = load ptr, ptr %37, align 8, !tbaa !26
  %39 = getelementptr inbounds nuw %struct.tsi_handshaker_vtable, ptr %38, i32 0, i32 3
  %40 = load ptr, ptr %39, align 8, !tbaa !40
  %41 = icmp eq ptr %40, null
  br i1 %41, label %42, label %43

42:                                               ; preds = %35
  store i32 6, ptr %3, align 4
  br label %52

43:                                               ; preds = %35
  %44 = load ptr, ptr %4, align 8, !tbaa !24
  %45 = getelementptr inbounds nuw %struct.tsi_handshaker, ptr %44, i32 0, i32 0
  %46 = load ptr, ptr %45, align 8, !tbaa !26
  %47 = getelementptr inbounds nuw %struct.tsi_handshaker_vtable, ptr %46, i32 0, i32 3
  %48 = load ptr, ptr %47, align 8, !tbaa !40
  %49 = load ptr, ptr %4, align 8, !tbaa !24
  %50 = load ptr, ptr %5, align 8, !tbaa !38
  %51 = call noundef i32 %48(ptr noundef %49, ptr noundef %50)
  store i32 %51, ptr %3, align 4
  br label %52

52:                                               ; preds = %43, %42, %34, %29, %23, %16
  %53 = load i32, ptr %3, align 4
  ret i32 %53
}