; Function Attrs: mustprogress uwtable
define noundef i32 @_Z27tsi_handshaker_extract_peerP14tsi_handshakerP8tsi_peer(ptr noundef %0, ptr noundef %1) local_unnamed_addr #4 {
  %3 = icmp eq ptr %0, null
  br i1 %3, label %_Z25tsi_handshaker_get_resultP14tsi_handshaker.exit.thread, label %4

4:                                                ; preds = %2
  %5 = load ptr, ptr %0, align 8, !tbaa !14
  %6 = icmp eq ptr %5, null
  %7 = icmp eq ptr %1, null
  %or.cond = or i1 %7, %6
  br i1 %or.cond, label %_Z25tsi_handshaker_get_resultP14tsi_handshaker.exit.thread, label %8

8:                                                ; preds = %4
  tail call void @llvm.memset.p0.i64(ptr noundef nonnull align 8 dereferenceable(16) %1, i8 0, i64 16, i1 false)
  %9 = getelementptr inbounds nuw i8, ptr %0, i64 8
  %10 = load i8, ptr %9, align 8, !tbaa !18, !range !19, !noundef !20
  %11 = trunc nuw i8 %10 to i1
  br i1 %11, label %_Z25tsi_handshaker_get_resultP14tsi_handshaker.exit.thread, label %12

12:                                               ; preds = %8
  %13 = getelementptr inbounds nuw i8, ptr %0, i64 10
  %14 = load i8, ptr %13, align 2, !tbaa !21, !range !19, !noundef !20
  %15 = trunc nuw i8 %14 to i1
  br i1 %15, label %_Z25tsi_handshaker_get_resultP14tsi_handshaker.exit.thread, label %16

16:                                               ; preds = %12
  %17 = load ptr, ptr %0, align 8, !tbaa !14
  %18 = icmp eq ptr %17, null
  br i1 %18, label %_Z25tsi_handshaker_get_resultP14tsi_handshaker.exit.thread, label %19

19:                                               ; preds = %16
  %20 = getelementptr inbounds nuw i8, ptr %17, i64 16
  %21 = load ptr, ptr %20, align 8, !tbaa !25
  %22 = icmp eq ptr %21, null
  br i1 %22, label %_Z25tsi_handshaker_get_resultP14tsi_handshaker.exit.thread, label %_Z25tsi_handshaker_get_resultP14tsi_handshaker.exit

_Z25tsi_handshaker_get_resultP14tsi_handshaker.exit: ; preds = %19
  %23 = tail call noundef i32 %21(ptr noundef nonnull %0)
  %.not = icmp eq i32 %23, 0
  br i1 %.not, label %24, label %_Z25tsi_handshaker_get_resultP14tsi_handshaker.exit.thread

24:                                               ; preds = %_Z25tsi_handshaker_get_resultP14tsi_handshaker.exit
  %25 = load ptr, ptr %0, align 8, !tbaa !14
  %26 = getelementptr inbounds nuw i8, ptr %25, i64 24
  %27 = load ptr, ptr %26, align 8, !tbaa !26
  %28 = icmp eq ptr %27, null
  br i1 %28, label %_Z25tsi_handshaker_get_resultP14tsi_handshaker.exit.thread, label %29

29:                                               ; preds = %24
  %30 = tail call noundef i32 %27(ptr noundef nonnull %0, ptr noundef nonnull %1)
  br label %_Z25tsi_handshaker_get_resultP14tsi_handshaker.exit.thread

_Z25tsi_handshaker_get_resultP14tsi_handshaker.exit.thread: ; preds = %19, %16, %24, %_Z25tsi_handshaker_get_resultP14tsi_handshaker.exit, %12, %8, %2, %4, %29
  %.0 = phi i32 [ %30, %29 ], [ 2, %4 ], [ 2, %2 ], [ 5, %8 ], [ 14, %12 ], [ 5, %_Z25tsi_handshaker_get_resultP14tsi_handshaker.exit ], [ 6, %24 ], [ 5, %16 ], [ 5, %19 ]
  ret i32 %.0
}